(lp0
(dp1
S'file_name'
p2
S'0019_0.jpg'
p3
sS'probability'
p4
cnumpy.core.multiarray
scalar
p5
(cnumpy
dtype
p6
(S'f8'
p7
I0
I1
tp8
Rp9
(I3
S'<'
p10
NNNI-1
I-1
I0
tp11
bS'\xce.\xeb\x8c\xd1\xc8\xd2?'
p12
tp13
Rp14
sS'optout'
p15
I00
sa(dp16
g2
S'0023_0.jpg'
p17
sg4
g5
(g9
S'e]\x7fB$my?'
p18
tp19
Rp20
sg15
I00
sa(dp21
g2
S'00031.jpg'
p22
sg4
g5
(g9
S'\xf8\x83\x80\x8f?1\x88?'
p23
tp24
Rp25
sg15
I00
sa(dp26
g2
S'0044_50_fake.jpg'
p27
sg4
g5
(g9
S'\xd7\xd8\xb2\xba\x94\xb5\xee?'
p28
tp29
Rp30
sg15
I00
sa(dp31
g2
S'0044_6.jpg'
p32
sg4
g5
(g9
S"'\xe9\xa1\xfa\r\x9e\xc4?"
p33
tp34
Rp35
sg15
I00
sa(dp36
g2
S'0023_7_fake.jpg'
p37
sg4
g5
(g9
S'\xb7\x9a-\xde\x82\xde\xef?'
p38
tp39
Rp40
sg15
I00
sa(dp41
g2
S'0019_0_fake.jpg'
p42
sg4
g5
(g9
S'\x86t\x8f\x00\xc1\xf9\xee?'
p43
tp44
Rp45
sg15
I00
sa.